; Function Attrs: mustprogress nounwind uwtable
define dso_local void @_ZN4node7tracing11TracedValue11CreateArrayEv(ptr noalias nocapture writeonly sret(%"class.std::unique_ptr") align 8 %agg.result) local_unnamed_addr #0 align 2 {
entry:
  %call = tail call noalias noundef nonnull dereferenceable(48) ptr @_Znwm(i64 noundef 48) #9
  store ptr getelementptr inbounds ({ [5 x ptr] }, ptr @_ZTVN4node7tracing11TracedValueE, i64 0, i32 0, i64 2), ptr %call, align 8
  %data_.i = getelementptr inbounds i8, ptr %call, i64 8
  tail call void @_ZNSt7__cxx1112basic_stringIcSt11char_traitsIcESaIcEEC1Ev(ptr noundef nonnull align 8 dereferenceable(32) %data_.i) #10
  %first_item_.i = getelementptr inbounds i8, ptr %call, i64 40
  store i8 1, ptr %first_item_.i, align 8
  %root_is_array_.i = getelementptr inbounds i8, ptr %call, i64 41
  store i8 1, ptr %root_is_array_.i, align 1
  store ptr %call, ptr %agg.result, align 8
  ret void
}